(dp0
Vengine
p1
Vpdflatex
p2
sVsynctex
p3
I01
sVpackages
p4
c__builtin__
set
p5
((lp6
Vhyperref
p7
aVmathtools
p8
aVamstext
p9
aVtcolorbox
p10
aVempheq
p11
aVamsmath
p12
aVfullpage
p13
aVtikz
p14
aVfancyvrb
p15
aVgeometry
p16
aVhf-tikz
p17
aVamsthm
p18
aVpgfplots
p19
aVcommath
p20
aVgraphicx
p21
aVcolor
p22
aVamssymb
p23
atp24
Rp25
sVfiles_with_guttermarks
p26
g5
((lp27
S'Midterm Notes.tex'
p28
atp29
Rp30
s.